target datalayout = "e-m:e-p270:32:32-p271:32:32-p272:64:64-i64:64-i128:128-f80:128-n8:16:32:64-S128"
target triple = "x86_64-pc-linux-gnu"

%struct._zend_signal_globals_t = type { i32, i32, i32, i32, i8, i8, [65 x %struct._zend_signal_entry_t], [64 x %struct._zend_signal_queue_t], ptr, ptr, ptr }
%struct._zend_signal_entry_t = type { i32, ptr }
%struct._zend_signal_queue_t = type { %struct._zend_signal_t, ptr }
%struct._zend_signal_t = type { i32, ptr, ptr }
%struct.__sigset_t = type { [16 x i64] }

@zend_signal_globals = global %struct._zend_signal_globals_t zeroinitializer, align 8
@global_sigmask = internal global %struct.__sigset_t zeroinitializer, align 8

; Function Attrs: nounwind uwtable
define void @zend_signal_handler_unblock() #0 {
  %1 = alloca ptr, align 8
  %2 = alloca %struct._zend_signal_t, align 8
  %3 = alloca %struct.__sigset_t, align 8
  %4 = load i32, ptr getelementptr inbounds (%struct._zend_signal_globals_t, ptr @zend_signal_globals, i32 0, i32 3), align 4
  %5 = icmp ne i32 %4, 0
  %6 = xor i1 %5, true
  %7 = xor i1 %6, true
  %8 = zext i1 %7 to i32
  %9 = sext i32 %8 to i64
  %10 = icmp ne i64 %9, 0
  br i1 %10, label %11, label %33

11:                                               ; preds = %0
  %12 = call i32 @sigprocmask(i32 noundef 0, ptr noundef @global_sigmask, ptr noundef %3) #8
  %13 = load ptr, ptr getelementptr inbounds (%struct._zend_signal_globals_t, ptr @zend_signal_globals, i32 0, i32 8), align 8
  store ptr %13, ptr %1, align 8
  %14 = load ptr, ptr %1, align 8
  %15 = getelementptr inbounds %struct._zend_signal_queue_t, ptr %14, i32 0, i32 1
  %16 = load ptr, ptr %15, align 8
  store ptr %16, ptr getelementptr inbounds (%struct._zend_signal_globals_t, ptr @zend_signal_globals, i32 0, i32 8), align 8
  %17 = load ptr, ptr %1, align 8
  %18 = getelementptr inbounds %struct._zend_signal_queue_t, ptr %17, i32 0, i32 0
  call void @llvm.memcpy.p0.p0.i64(ptr align 8 %2, ptr align 8 %18, i64 24, i1 false)
  %19 = load ptr, ptr getelementptr inbounds (%struct._zend_signal_globals_t, ptr @zend_signal_globals, i32 0, i32 10), align 8
  %20 = load ptr, ptr %1, align 8
  %21 = getelementptr inbounds %struct._zend_signal_queue_t, ptr %20, i32 0, i32 1
  store ptr %19, ptr %21, align 8
  %22 = load ptr, ptr %1, align 8
  %23 = getelementptr inbounds %struct._zend_signal_queue_t, ptr %22, i32 0, i32 0
  %24 = getelementptr inbounds %struct._zend_signal_t, ptr %23, i32 0, i32 0
  store i32 0, ptr %24, align 8
  %25 = load ptr, ptr %1, align 8
  store ptr %25, ptr getelementptr inbounds (%struct._zend_signal_globals_t, ptr @zend_signal_globals, i32 0, i32 10), align 8
  %26 = getelementptr inbounds %struct._zend_signal_t, ptr %2, i32 0, i32 0
  %27 = load i32, ptr %26, align 8
  %28 = getelementptr inbounds %struct._zend_signal_t, ptr %2, i32 0, i32 1
  %29 = load ptr, ptr %28, align 8
  %30 = getelementptr inbounds %struct._zend_signal_t, ptr %2, i32 0, i32 2
  %31 = load ptr, ptr %30, align 8
  call void @zend_signal_handler_defer(i32 noundef %27, ptr noundef %29, ptr noundef %31)
  %32 = call i32 @sigprocmask(i32 noundef 2, ptr noundef %3, ptr noundef null) #8
  br label %33

33:                                               ; preds = %11, %0
  ret void
}