; Function Attrs: nounwind uwtable
define void @zend_signal_handler_unblock() local_unnamed_addr #0 {
  %1 = alloca %struct.__sigset_t, align 8
  %2 = load i32, ptr getelementptr inbounds (%struct._zend_signal_globals_t, ptr @zend_signal_globals, i64 0, i32 3), align 4
  %.not = icmp eq i32 %2, 0
  br i1 %.not, label %10, label %3

3:                                                ; preds = %0
  %4 = call i32 @sigprocmask(i32 noundef 0, ptr noundef nonnull @global_sigmask, ptr noundef nonnull %1) #9
  %5 = load ptr, ptr getelementptr inbounds (%struct._zend_signal_globals_t, ptr @zend_signal_globals, i64 0, i32 8), align 8
  %6 = getelementptr inbounds i8, ptr %5, i64 24
  %7 = load ptr, ptr %6, align 8
  store ptr %7, ptr getelementptr inbounds (%struct._zend_signal_globals_t, ptr @zend_signal_globals, i64 0, i32 8), align 8
  %.sroa.0.0.copyload = load i32, ptr %5, align 8
  %.sroa.21.0..sroa_idx = getelementptr inbounds i8, ptr %5, i64 8
  %.sroa.21.0.copyload = load ptr, ptr %.sroa.21.0..sroa_idx, align 8
  %.sroa.3.0..sroa_idx = getelementptr inbounds i8, ptr %5, i64 16
  %.sroa.3.0.copyload = load ptr, ptr %.sroa.3.0..sroa_idx, align 8
  %8 = load ptr, ptr getelementptr inbounds (%struct._zend_signal_globals_t, ptr @zend_signal_globals, i64 0, i32 10), align 8
  store ptr %8, ptr %6, align 8
  store i32 0, ptr %5, align 8
  store ptr %5, ptr getelementptr inbounds (%struct._zend_signal_globals_t, ptr @zend_signal_globals, i64 0, i32 10), align 8
  call void @zend_signal_handler_defer(i32 noundef %.sroa.0.0.copyload, ptr noundef %.sroa.21.0.copyload, ptr noundef %.sroa.3.0.copyload)
  %9 = call i32 @sigprocmask(i32 noundef 2, ptr noundef nonnull %1, ptr noundef null) #9
  br label %10

10:                                               ; preds = %3, %0
  ret void
}